target datalayout = "e-m:e-p270:32:32-p271:32:32-p272:64:64-i64:64-i128:128-f80:128-n8:16:32:64-S128"
target triple = "x86_64-pc-linux-gnu"

%"struct.cv::SGBM3WayMainLoop" = type { %"class.cv::ParallelLoopBody", ptr, ptr, ptr, i32, i32, i32, i32, i32, i32, i32, i32, i32, i32, i32, i32, i32, i32, i32, i32, i32, i32, %"class.cv::utils::BufferArea", ptr }
%"class.cv::ParallelLoopBody" = type { ptr }
%"class.cv::utils::BufferArea" = type <{ %"class.std::vector", ptr, i64, i8, [7 x i8] }>
%"class.std::vector" = type { %"struct.std::_Vector_base" }
%"struct.std::_Vector_base" = type { %"struct.std::_Vector_base<cv::utils::BufferArea::Block, std::allocator<cv::utils::BufferArea::Block>>::_Vector_impl" }
%"struct.std::_Vector_base<cv::utils::BufferArea::Block, std::allocator<cv::utils::BufferArea::Block>>::_Vector_impl" = type { %"struct.std::_Vector_base<cv::utils::BufferArea::Block, std::allocator<cv::utils::BufferArea::Block>>::_Vector_impl_data" }
%"struct.std::_Vector_base<cv::utils::BufferArea::Block, std::allocator<cv::utils::BufferArea::Block>>::_Vector_impl_data" = type { ptr, ptr, ptr }

; Function Attrs: mustprogress uwtable
define hidden void @_ZNK2cv16SGBM3WayMainLoopclERKNS_5RangeE(ptr noundef nonnull align 8 dereferenceable(160) %0, ptr noundef nonnull align 4 dereferenceable(8) %1) unnamed_addr #4 align 2 {
  %3 = alloca ptr, align 8
  %4 = alloca ptr, align 8
  store ptr %0, ptr %3, align 8, !tbaa !3
  store ptr %1, ptr %4, align 8, !tbaa !113
  %5 = load ptr, ptr %3, align 8
  %6 = getelementptr inbounds nuw %"struct.cv::SGBM3WayMainLoop", ptr %5, i32 0, i32 10
  %7 = load i32, ptr %6, align 8, !tbaa !53
  %8 = getelementptr inbounds nuw %"struct.cv::SGBM3WayMainLoop", ptr %5, i32 0, i32 11
  %9 = load i32, ptr %8, align 4, !tbaa !57
  %10 = icmp eq i32 %7, %9
  br i1 %10, label %11, label %13

11:                                               ; preds = %2
  %12 = load ptr, ptr %4, align 8, !tbaa !113
  call void @_ZNK2cv16SGBM3WayMainLoop4implILb1EEEvRKNS_5RangeE(ptr noundef nonnull align 8 dereferenceable(160) %5, ptr noundef nonnull align 4 dereferenceable(8) %12)
  br label %15

13:                                               ; preds = %2
  %14 = load ptr, ptr %4, align 8, !tbaa !113
  call void @_ZNK2cv16SGBM3WayMainLoop4implILb0EEEvRKNS_5RangeE(ptr noundef nonnull align 8 dereferenceable(160) %5, ptr noundef nonnull align 4 dereferenceable(8) %14)
  br label %15

15:                                               ; preds = %13, %11
  ret void
}