; Function Attrs: mustprogress uwtable
define hidden void @_ZNK2cv16SGBM3WayMainLoopclERKNS_5RangeE(ptr noundef nonnull align 8 dereferenceable(160) %0, ptr noundef nonnull align 4 dereferenceable(8) %1) unnamed_addr #3 align 2 {
  %3 = getelementptr inbounds nuw i8, ptr %0, i64 56
  %4 = load i32, ptr %3, align 8, !tbaa !45
  %5 = getelementptr inbounds nuw i8, ptr %0, i64 60
  %6 = load i32, ptr %5, align 4, !tbaa !49
  %7 = icmp eq i32 %4, %6
  br i1 %7, label %8, label %9

8:                                                ; preds = %2
  tail call void @_ZNK2cv16SGBM3WayMainLoop4implILb1EEEvRKNS_5RangeE(ptr noundef nonnull align 8 dereferenceable(160) %0, ptr noundef nonnull align 4 dereferenceable(8) %1)
  br label %10

9:                                                ; preds = %2
  tail call void @_ZNK2cv16SGBM3WayMainLoop4implILb0EEEvRKNS_5RangeE(ptr noundef nonnull align 8 dereferenceable(160) %0, ptr noundef nonnull align 4 dereferenceable(8) %1)
  br label %10

10:                                               ; preds = %9, %8
  ret void
}